target datalayout = "e-m:e-p270:32:32-p271:32:32-p272:64:64-i64:64-i128:128-f80:128-n8:16:32:64-S128"
target triple = "x86_64-pc-linux-gnu"

%struct.z_stream_s = type { ptr, i32, i64, ptr, i32, i64, ptr, ptr, ptr, ptr, ptr, i32, i64, i64 }
%struct.internal_state = type { ptr, i32, ptr, i64, ptr, i64, i32, ptr, i64, i8, i32, i32, i32, i32, ptr, i64, ptr, ptr, i32, i32, i32, i32, i32, i64, i32, i32, i32, i32, i32, i32, i32, i32, i32, i32, i32, i32, i32, [573 x %struct.ct_data_s], [61 x %struct.ct_data_s], [39 x %struct.ct_data_s], %struct.tree_desc_s, %struct.tree_desc_s, %struct.tree_desc_s, [16 x i16], [573 x i32], i32, i32, [573 x i8], ptr, i32, i32, i32, i64, i64, i32, i32, i16, i32, i64 }
%struct.ct_data_s = type { %union.anon, %union.anon.0 }
%union.anon = type { i16 }
%union.anon.0 = type { i16 }
%struct.tree_desc_s = type { ptr, i32, ptr }

; Function Attrs: nounwind uwtable
define internal i32 @deflateStateCheck(ptr noundef %0) #0 {
  %2 = alloca i32, align 4
  %3 = alloca ptr, align 8
  %4 = alloca ptr, align 8
  %5 = alloca i32, align 4
  store ptr %0, ptr %3, align 8, !tbaa !4
  call void @llvm.lifetime.start.p0(i64 8, ptr %4) #5
  %6 = load ptr, ptr %3, align 8, !tbaa !4
  %7 = icmp eq ptr %6, null
  br i1 %7, label %18, label %8

8:                                                ; preds = %1
  %9 = load ptr, ptr %3, align 8, !tbaa !4
  %10 = getelementptr inbounds nuw %struct.z_stream_s, ptr %9, i32 0, i32 8
  %11 = load ptr, ptr %10, align 8, !tbaa !18
  %12 = icmp eq ptr %11, null
  br i1 %12, label %18, label %13

13:                                               ; preds = %8
  %14 = load ptr, ptr %3, align 8, !tbaa !4
  %15 = getelementptr inbounds nuw %struct.z_stream_s, ptr %14, i32 0, i32 9
  %16 = load ptr, ptr %15, align 8, !tbaa !20
  %17 = icmp eq ptr %16, null
  br i1 %17, label %18, label %19

18:                                               ; preds = %13, %8, %1
  store i32 1, ptr %2, align 4
  store i32 1, ptr %5, align 4
  br label %73

19:                                               ; preds = %13
  %20 = load ptr, ptr %3, align 8, !tbaa !4
  %21 = getelementptr inbounds nuw %struct.z_stream_s, ptr %20, i32 0, i32 7
  %22 = load ptr, ptr %21, align 8, !tbaa !22
  store ptr %22, ptr %4, align 8, !tbaa !21
  %23 = load ptr, ptr %4, align 8, !tbaa !21
  %24 = icmp eq ptr %23, null
  br i1 %24, label %71, label %25

25:                                               ; preds = %19
  %26 = load ptr, ptr %4, align 8, !tbaa !21
  %27 = getelementptr inbounds nuw %struct.internal_state, ptr %26, i32 0, i32 0
  %28 = load ptr, ptr %27, align 8, !tbaa !23
  %29 = load ptr, ptr %3, align 8, !tbaa !4
  %30 = icmp ne ptr %28, %29
  br i1 %30, label %71, label %31

31:                                               ; preds = %25
  %32 = load ptr, ptr %4, align 8, !tbaa !21
  %33 = getelementptr inbounds nuw %struct.internal_state, ptr %32, i32 0, i32 1
  %34 = load i32, ptr %33, align 8, !tbaa !31
  %35 = icmp ne i32 %34, 42
  br i1 %35, label %36, label %72

36:                                               ; preds = %31
  %37 = load ptr, ptr %4, align 8, !tbaa !21
  %38 = getelementptr inbounds nuw %struct.internal_state, ptr %37, i32 0, i32 1
  %39 = load i32, ptr %38, align 8, !tbaa !31
  %40 = icmp ne i32 %39, 57
  br i1 %40, label %41, label %72

41:                                               ; preds = %36
  %42 = load ptr, ptr %4, align 8, !tbaa !21
  %43 = getelementptr inbounds nuw %struct.internal_state, ptr %42, i32 0, i32 1
  %44 = load i32, ptr %43, align 8, !tbaa !31
  %45 = icmp ne i32 %44, 69
  br i1 %45, label %46, label %72

46:                                               ; preds = %41
  %47 = load ptr, ptr %4, align 8, !tbaa !21
  %48 = getelementptr inbounds nuw %struct.internal_state, ptr %47, i32 0, i32 1
  %49 = load i32, ptr %48, align 8, !tbaa !31
  %50 = icmp ne i32 %49, 73
  br i1 %50, label %51, label %72

51:                                               ; preds = %46
  %52 = load ptr, ptr %4, align 8, !tbaa !21
  %53 = getelementptr inbounds nuw %struct.internal_state, ptr %52, i32 0, i32 1
  %54 = load i32, ptr %53, align 8, !tbaa !31
  %55 = icmp ne i32 %54, 91
  br i1 %55, label %56, label %72

56:                                               ; preds = %51
  %57 = load ptr, ptr %4, align 8, !tbaa !21
  %58 = getelementptr inbounds nuw %struct.internal_state, ptr %57, i32 0, i32 1
  %59 = load i32, ptr %58, align 8, !tbaa !31
  %60 = icmp ne i32 %59, 103
  br i1 %60, label %61, label %72

61:                                               ; preds = %56
  %62 = load ptr, ptr %4, align 8, !tbaa !21
  %63 = getelementptr inbounds nuw %struct.internal_state, ptr %62, i32 0, i32 1
  %64 = load i32, ptr %63, align 8, !tbaa !31
  %65 = icmp ne i32 %64, 113
  br i1 %65, label %66, label %72

66:                                               ; preds = %61
  %67 = load ptr, ptr %4, align 8, !tbaa !21
  %68 = getelementptr inbounds nuw %struct.internal_state, ptr %67, i32 0, i32 1
  %69 = load i32, ptr %68, align 8, !tbaa !31
  %70 = icmp ne i32 %69, 666
  br i1 %70, label %71, label %72

71:                                               ; preds = %66, %25, %19
  store i32 1, ptr %2, align 4
  store i32 1, ptr %5, align 4
  br label %73

72:                                               ; preds = %66, %61, %56, %51, %46, %41, %36, %31
  store i32 0, ptr %2, align 4
  store i32 1, ptr %5, align 4
  br label %73

73:                                               ; preds = %72, %71, %18
  call void @llvm.lifetime.end.p0(i64 8, ptr %4) #5
  %74 = load i32, ptr %2, align 4
  ret i32 %74
}

; Function Attrs: nounwind uwtable
define dso_local i32 @cm_zlib_deflatePrime(ptr noundef %0, i32 noundef %1, i32 noundef %2) #0 {
  %4 = alloca i32, align 4
  %5 = alloca ptr, align 8
  %6 = alloca i32, align 4
  %7 = alloca i32, align 4
  %8 = alloca ptr, align 8
  %9 = alloca i32, align 4
  %10 = alloca i32, align 4
  store ptr %0, ptr %5, align 8, !tbaa !4
  store i32 %1, ptr %6, align 4, !tbaa !9
  store i32 %2, ptr %7, align 4, !tbaa !9
  call void @llvm.lifetime.start.p0(i64 8, ptr %8) #5
  call void @llvm.lifetime.start.p0(i64 4, ptr %9) #5
  %11 = load ptr, ptr %5, align 8, !tbaa !4
  %12 = call i32 @deflateStateCheck(ptr noundef %11)
  %13 = icmp ne i32 %12, 0
  br i1 %13, label %14, label %15

14:                                               ; preds = %3
  store i32 -2, ptr %4, align 4
  store i32 1, ptr %10, align 4
  br label %79

15:                                               ; preds = %3
  %16 = load ptr, ptr %5, align 8, !tbaa !4
  %17 = getelementptr inbounds nuw %struct.z_stream_s, ptr %16, i32 0, i32 7
  %18 = load ptr, ptr %17, align 8, !tbaa !22
  store ptr %18, ptr %8, align 8, !tbaa !21
  %19 = load i32, ptr %6, align 4, !tbaa !9
  %20 = icmp slt i32 %19, 0
  br i1 %20, label %33, label %21

21:                                               ; preds = %15
  %22 = load i32, ptr %6, align 4, !tbaa !9
  %23 = icmp sgt i32 %22, 16
  br i1 %23, label %33, label %24

24:                                               ; preds = %21
  %25 = load ptr, ptr %8, align 8, !tbaa !21
  %26 = getelementptr inbounds nuw %struct.internal_state, ptr %25, i32 0, i32 48
  %27 = load ptr, ptr %26, align 8, !tbaa !48
  %28 = load ptr, ptr %8, align 8, !tbaa !21
  %29 = getelementptr inbounds nuw %struct.internal_state, ptr %28, i32 0, i32 4
  %30 = load ptr, ptr %29, align 8, !tbaa !79
  %31 = getelementptr inbounds i8, ptr %30, i64 2
  %32 = icmp ult ptr %27, %31
  br i1 %32, label %33, label %34

33:                                               ; preds = %24, %21, %15
  store i32 -5, ptr %4, align 4
  store i32 1, ptr %10, align 4
  br label %79

34:                                               ; preds = %24
  br label %35

35:                                               ; preds = %75, %34
  %36 = load ptr, ptr %8, align 8, !tbaa !21
  %37 = getelementptr inbounds nuw %struct.internal_state, ptr %36, i32 0, i32 57
  %38 = load i32, ptr %37, align 4, !tbaa !91
  %39 = sub nsw i32 16, %38
  store i32 %39, ptr %9, align 4, !tbaa !9
  %40 = load i32, ptr %9, align 4, !tbaa !9
  %41 = load i32, ptr %6, align 4, !tbaa !9
  %42 = icmp sgt i32 %40, %41
  br i1 %42, label %43, label %45

43:                                               ; preds = %35
  %44 = load i32, ptr %6, align 4, !tbaa !9
  store i32 %44, ptr %9, align 4, !tbaa !9
  br label %45

45:                                               ; preds = %43, %35
  %46 = load i32, ptr %7, align 4, !tbaa !9
  %47 = load i32, ptr %9, align 4, !tbaa !9
  %48 = shl i32 1, %47
  %49 = sub nsw i32 %48, 1
  %50 = and i32 %46, %49
  %51 = load ptr, ptr %8, align 8, !tbaa !21
  %52 = getelementptr inbounds nuw %struct.internal_state, ptr %51, i32 0, i32 57
  %53 = load i32, ptr %52, align 4, !tbaa !91
  %54 = shl i32 %50, %53
  %55 = trunc i32 %54 to i16
  %56 = zext i16 %55 to i32
  %57 = load ptr, ptr %8, align 8, !tbaa !21
  %58 = getelementptr inbounds nuw %struct.internal_state, ptr %57, i32 0, i32 56
  %59 = load i16, ptr %58, align 8, !tbaa !92
  %60 = zext i16 %59 to i32
  %61 = or i32 %60, %56
  %62 = trunc i32 %61 to i16
  store i16 %62, ptr %58, align 8, !tbaa !92
  %63 = load i32, ptr %9, align 4, !tbaa !9
  %64 = load ptr, ptr %8, align 8, !tbaa !21
  %65 = getelementptr inbounds nuw %struct.internal_state, ptr %64, i32 0, i32 57
  %66 = load i32, ptr %65, align 4, !tbaa !91
  %67 = add nsw i32 %66, %63
  store i32 %67, ptr %65, align 4, !tbaa !91
  %68 = load ptr, ptr %8, align 8, !tbaa !21
  call void @cm_zlib__tr_flush_bits(ptr noundef %68)
  %69 = load i32, ptr %9, align 4, !tbaa !9
  %70 = load i32, ptr %7, align 4, !tbaa !9
  %71 = ashr i32 %70, %69
  store i32 %71, ptr %7, align 4, !tbaa !9
  %72 = load i32, ptr %9, align 4, !tbaa !9
  %73 = load i32, ptr %6, align 4, !tbaa !9
  %74 = sub nsw i32 %73, %72
  store i32 %74, ptr %6, align 4, !tbaa !9
  br label %75

75:                                               ; preds = %45
  %76 = load i32, ptr %6, align 4, !tbaa !9
  %77 = icmp ne i32 %76, 0
  br i1 %77, label %35, label %78, !llvm.loop !93

78:                                               ; preds = %75
  store i32 0, ptr %4, align 4
  store i32 1, ptr %10, align 4
  br label %79

79:                                               ; preds = %78, %33, %14
  call void @llvm.lifetime.end.p0(i64 4, ptr %9) #5
  call void @llvm.lifetime.end.p0(i64 8, ptr %8) #5
  %80 = load i32, ptr %4, align 4
  ret i32 %80
}