; Function Attrs: nounwind uwtable
define dso_local range(i32 -5, 1) i32 @cm_zlib_deflatePrime(ptr noundef readonly %0, i32 noundef %1, i32 noundef %2) local_unnamed_addr #0 {
  %4 = icmp eq ptr %0, null
  br i1 %4, label %deflateStateCheck.exit.thread, label %5

5:                                                ; preds = %3
  %6 = getelementptr inbounds nuw i8, ptr %0, i64 64
  %7 = load ptr, ptr %6, align 8, !tbaa !14
  %8 = icmp eq ptr %7, null
  br i1 %8, label %deflateStateCheck.exit.thread, label %9

9:                                                ; preds = %5
  %10 = getelementptr inbounds nuw i8, ptr %0, i64 72
  %11 = load ptr, ptr %10, align 8, !tbaa !16
  %12 = icmp eq ptr %11, null
  br i1 %12, label %deflateStateCheck.exit.thread, label %13

13:                                               ; preds = %9
  %14 = getelementptr inbounds nuw i8, ptr %0, i64 56
  %15 = load ptr, ptr %14, align 8, !tbaa !17
  %16 = icmp eq ptr %15, null
  br i1 %16, label %deflateStateCheck.exit.thread, label %17

17:                                               ; preds = %13
  %18 = load ptr, ptr %15, align 8, !tbaa !18
  %.not.i = icmp eq ptr %18, %0
  br i1 %.not.i, label %19, label %deflateStateCheck.exit.thread

19:                                               ; preds = %17
  %20 = getelementptr inbounds nuw i8, ptr %15, i64 8
  %21 = load i32, ptr %20, align 8, !tbaa !27
  switch i32 %21, label %deflateStateCheck.exit.thread [
    i32 42, label %deflateStateCheck.exit
    i32 57, label %deflateStateCheck.exit
    i32 69, label %deflateStateCheck.exit
    i32 73, label %deflateStateCheck.exit
    i32 91, label %deflateStateCheck.exit
    i32 103, label %deflateStateCheck.exit
    i32 113, label %deflateStateCheck.exit
    i32 666, label %deflateStateCheck.exit
  ]

deflateStateCheck.exit:                           ; preds = %19, %19, %19, %19, %19, %19, %19, %19
  %or.cond = icmp ugt i32 %1, 16
  br i1 %or.cond, label %deflateStateCheck.exit.thread, label %22

22:                                               ; preds = %deflateStateCheck.exit
  %23 = getelementptr inbounds nuw i8, ptr %15, i64 5888
  %24 = load ptr, ptr %23, align 8, !tbaa !45
  %25 = getelementptr inbounds nuw i8, ptr %15, i64 32
  %26 = load ptr, ptr %25, align 8, !tbaa !84
  %27 = getelementptr inbounds nuw i8, ptr %26, i64 2
  %28 = icmp ult ptr %24, %27
  br i1 %28, label %deflateStateCheck.exit.thread, label %.preheader

.preheader:                                       ; preds = %22
  %29 = getelementptr inbounds nuw i8, ptr %15, i64 5940
  %30 = getelementptr inbounds nuw i8, ptr %15, i64 5936
  br label %31

31:                                               ; preds = %.preheader, %31
  %.025 = phi i32 [ %42, %31 ], [ %1, %.preheader ]
  %.024 = phi i32 [ %41, %31 ], [ %2, %.preheader ]
  %32 = load i32, ptr %29, align 4, !tbaa !86
  %33 = sub nsw i32 16, %32
  %spec.select = tail call i32 @llvm.smin.i32(i32 %33, i32 %.025)
  %notmask = shl nsw i32 -1, %spec.select
  %34 = xor i32 %notmask, -1
  %35 = and i32 %.024, %34
  %36 = shl i32 %35, %32
  %37 = load i16, ptr %30, align 8, !tbaa !87
  %38 = trunc i32 %36 to i16
  %39 = or i16 %37, %38
  store i16 %39, ptr %30, align 8, !tbaa !87
  %40 = add nsw i32 %spec.select, %32
  store i32 %40, ptr %29, align 4, !tbaa !86
  tail call void @cm_zlib__tr_flush_bits(ptr noundef nonnull %15) #10
  %41 = ashr i32 %.024, %spec.select
  %42 = sub nsw i32 %.025, %spec.select
  %.not29 = icmp eq i32 %42, 0
  br i1 %.not29, label %deflateStateCheck.exit.thread, label %31, !llvm.loop !88

deflateStateCheck.exit.thread:                    ; preds = %31, %13, %17, %19, %3, %5, %9, %deflateStateCheck.exit, %22
  %.023 = phi i32 [ -5, %22 ], [ -5, %deflateStateCheck.exit ], [ -2, %9 ], [ -2, %5 ], [ -2, %3 ], [ -2, %19 ], [ -2, %17 ], [ -2, %13 ], [ 0, %31 ]
  ret i32 %.023
}